; Function Attrs: mustprogress nounwind uwtable
define dso_local noundef ptr @_ZN5clang4ento13ModelInjector7getBodyEPKNS_14ObjCMethodDeclE(ptr noundef nonnull align 8 dereferenceable(40) %0, ptr nocapture noundef readonly %1) unnamed_addr #0 align 2 {
  tail call void @_ZN5clang4ento13ModelInjector15onBodySynthesisEPKNS_9NamedDeclE(ptr noundef nonnull align 8 dereferenceable(40) %0, ptr noundef %1)
  %3 = getelementptr inbounds nuw i8, ptr %1, i64 40
  %4 = load i64, ptr %3, align 8
  %5 = and i64 %4, 7
  %6 = icmp ne i64 %5, 0
  %7 = and i64 %4, -8
  %.not2.i = icmp eq i64 %7, 0
  %.not.i = or i1 %6, %.not2.i
  br i1 %.not.i, label %_ZNK5clang9NamedDecl7getNameEv.exit, label %8

8:                                                ; preds = %2
  %9 = inttoptr i64 %7 to ptr
  %10 = getelementptr inbounds nuw i8, ptr %9, i64 16
  %11 = load ptr, ptr %10, align 8
  %12 = getelementptr inbounds i8, ptr %11, i64 16
  %13 = load i64, ptr %11, align 8
  %14 = and i64 %13, 4294967295
  br label %_ZNK5clang9NamedDecl7getNameEv.exit

_ZNK5clang9NamedDecl7getNameEv.exit:              ; preds = %2, %8
  %.sroa.3.0.i = phi i64 [ %14, %8 ], [ 0, %2 ]
  %.sroa.0.0.i = phi ptr [ %12, %8 ], [ @.str.2, %2 ]
  %15 = getelementptr inbounds nuw i8, ptr %0, i64 16
  %16 = tail call noundef i32 @_ZN4llvm13StringMapImpl4hashENS_9StringRefE(ptr nonnull %.sroa.0.0.i, i64 %.sroa.3.0.i) #10
  %17 = tail call { ptr, i8 } @_ZN4llvm9StringMapIPN5clang4StmtENS_15MallocAllocatorEE21try_emplace_with_hashIJEEESt4pairINS_17StringMapIteratorIS3_EEbENS_9StringRefEjDpOT_(ptr noundef nonnull align 8 dereferenceable(24) %15, ptr nonnull %.sroa.0.0.i, i64 %.sroa.3.0.i, i32 noundef %16)
  %.fca.0.extract.i = extractvalue { ptr, i8 } %17, 0
  %18 = load ptr, ptr %.fca.0.extract.i, align 8
  %19 = getelementptr inbounds nuw i8, ptr %18, i64 8
  %20 = load ptr, ptr %19, align 8
  ret ptr %20
}